(dp0
F0.4
(lp1
F0.01346062064313318
aF0.020069369063452684
aF0.026232849489636813
aF0.032238906382519784
aF0.0381839397935342
aF0.04413423526771051
aF0.05564597350456017
aF0.06127365348940997
aF0.06712258299960645
asF0.8
(lp2
F0.006848075156413821
aF0.00995716839638186
aF0.012953334293339218
aF0.015875624187893175
aF0.018826704054074123
aF0.021800916606801977
aF0.02714201858881133
aF0.030285109901733095
aF0.033255535538848836
asF1.2
(lp3
F0.004543789675137385
aF0.006670373643427345
aF0.008523473872369614
aF0.01042926445874197
aF0.012354158258895777
aF0.014211213933146661
aF0.01757971418401126
aF0.019644964021662877
aF0.02155408712715492
asF1.6
(lp4
F0.0033912369346469516
aF0.0050893761983681765
aF0.0065317756234075245
aF0.007862407705802507
aF0.009290733763339736
aF0.010653399577327936
aF0.013249067070021757
aF0.014751938376564237
aF0.016161244578170527
as.