(dp0
I0
(lp1
F3.1197347138740663
aF4.260629049141701
aF4.251499673165921
aF3.7523348397174106
aF5.014000141012258
aF3.5420730937647837
aF3.79358680805463
aF4.430282578233618
aF4.476931746089666
aF4.61221966868087
aF4.030097382580717
aF4.358909257878844
aF4.469927785285396
aF4.205938056224497
aF4.819800675361716
aF4.307649620604308
aF3.5870760813971088
aF4.041498585994152
aF4.030097382580717
aF3.8209824547373827
aF5.009780194196987
aF3.8548001084112586
aF4.524287180698038
aF3.8820351091772083
aF5.337326907932499
aF4.8947746185747025
aF4.2859381980595606
aF3.5648772774796944
aF4.138198598508813
aF5.168556151147658
aF5.377508545423521
aF4.932291534930302
aF5.177172284472032
aF4.918028505154271
aF5.56954744708465
aF5.291070074730418
aF5.757653233021169
aF5.134376510125117
aF5.342116970223665
aF5.476038485806549
aF5.227947449964183
aF4.8263139195176095
aF4.984956801511664
aF4.407864610235152
aF6.4835659443460685
aF6.120250707639503
aF5.441828889902531
aF6.5724554664023405
aF6.703213777107791
aF6.8583241487144155
aF5.627910968236734
aF6.809938603190068
aF4.824683958720745
aF5.414603245062207
aF6.355498354734462
aF2.627531580241333
aF3.7257169835625197
aF3.8989872275578947
aF3.8795049972224978
aF3.322299814365611
aF4.2218479820829025
aF3.500242368249161
aF4.000529039980993
aF4.802948225447864
aF5.496263928044061
asI1
(lp2
F5.522466124039977
aF4.700490434373783
aF6.637712028769968
aF6.886991553289948
aF7.465096683675601
aF5.038975627677182
aF6.9481772634576675
aF7.043887254901322
aF4.276403085759487
aF6.22732421247131
aF7.601679355989848
aF3.609430485577914
aF6.044708885485904
aF6.992025870957795
aF6.634399797218685
aF6.988350693101838
aF6.506159624970025
aF5.390365778887593
aF5.8261775607476975
aF8.009239273268822
aF5.803289914284699
aF6.043335088011929
aF6.759195319586296
aF4.496985352148231
aF6.458750154785643
aF8.255409620382641
aF5.020897731731965
aF6.674366061057352
aF6.378190066503357
aF5.000126812194903
aF5.627655954974072
aF5.401315130459576
aF4.964651677978434
aF5.029444748865613
aF4.781635387026163
aF4.921464813483712
aF7.1174181978727225
aF3.916152339801545
aF5.698815770949955
aF5.06682057683927
aF3.7610571976311866
aF5.298002468071825
aF6.4792091586872536
aF6.4043050065637015
aF6.51891992823057
aF7.204192464712135
aF5.944706994690921
aF4.037454355792969
aF6.9810119157922
aF6.178130666183199
aF6.709733632917611
aF6.842685122813301
aF8.89915474807647
aF4.7154946599135465
aF4.73480669288684
aF4.057167285207886
aF4.466768753108094
aF4.088985758458018
aF3.84981531594795
aF3.1319993388989977
aF4.785077269615348
aF3.66767922582793
aF2.9505852626778175
aF3.6321096007720928
aF3.6167946663836354
asI2
(lp3
F5.468186293119233
aF6.13883227397616
aF5.924066520801419
aF5.645979731201462
aF5.593466173313115
aF5.606502768452453
aF5.085981119717951
aF6.5671802140825735
aF6.270617372244452
aF5.413175086781679
aF5.199139430817136
aF6.095823387209091
aF5.805896385758811
aF4.669045064005502
aF5.198148111490045
aF5.673788580380464
aF5.3375750431497995
aF4.591974756396855
aF4.932315907983619
aF4.6544310486105385
aF5.906952360695102
aF5.803424564406754
aF5.455056518787726
aF5.749976264495527
aF4.9571284554327155
aF5.715819581115688
aF4.9715921455342755
aF5.823258268863253
aF6.619802702240743
aF5.645979731201462
aF6.084033503398377
aF5.844063050102492
aF5.536668182113754
aF5.7792299594533905
aF6.032873230521824
aF6.183387191818581
aF4.395531917352844
aF5.748359740384058
aF5.322984860799504
aF6.725959077811216
aF5.97644591787975
aF5.960331029455209
aF6.971925870444496
aF6.319065316092434
aF6.80316606107007
aF6.32933465300916
aF6.4931456324376295
aF7.2129519698548705
aF7.299211279445282
aF7.150521278736176
aF6.440480540687013
aF6.7077554651180495
aF5.682066304445212
aF5.4427139406524505
aF5.378644113256898
aF5.072732269812342
aF4.3012181112902645
aF5.02628210337908
aF5.334789797546434
aF3.8907598299883155
aF4.259995957403218
aF4.467074246883192
aF3.6292004963695588
aF3.7453708103761683
aF4.248930458007397
asI3
(lp4
F9.15434014929501
aF5.157889954248137
aF4.846415373156181
aF5.075079794432227
aF4.700802286071975
aF4.0728749757052745
aF4.722299857502183
aF8.815676455667134
aF4.256428560760416
aF5.3447700250542285
aF4.535620360939138
aF5.836150539791695
aF4.738190129277197
aF3.8482344180390444
aF5.6529720921923925
aF6.350612354492479
aF5.348461164574294
aF5.017539207193766
aF7.9147386472187815
aF5.620153676562829
aF9.74773035406366
aF5.655035973934704
aF4.961288767651236
aF5.339242858534008
aF5.961949011781046
aF4.884624261307839
aF5.486767103296903
aF5.7218853094226665
aF5.700825738905836
aF4.722299857502183
aF4.484407507992807
aF3.9513121256650914
aF4.43433825725942
aF4.147026380885451
aF5.88493295311822
aF5.163047844202386
aF4.71224324082968
aF3.79915220323943
aF5.663306593275012
aF4.198737742642222
aF4.000295333834493
aF3.9858835647470805
aF6.311794430565263
aF4.067527188184653
aF5.4654705478500905
aF3.477580496768558
aF7.164266203796095
aF5.286397110104831
aF5.707127314888415
aF5.573639270459575
aF6.012866278186007
aF6.8596738408357645
aF1.3126392824243351
aF3.532301831837436
aF3.454313901116672
aF2.7395018628594197
aF2.700338830649783
aF2.5108029717307763
aF3.1910060841794716
aF2.9582015914070197
aF3.7485826555196415
aF3.2725847311656784
aF2.840481117294545
aF3.491691508703146
aF3.3511777439652004
asI4
(lp5
F4.963840213122906
aF4.87611576968841
aF5.001534878223477
aF4.772677829973771
aF3.9097162634166867
aF5.199265535173871
aF5.029254450798151
aF5.14781361654656
aF4.702059014710759
aF4.822845342300175
aF4.239077287787355
aF5.505970675285591
aF5.581987767514946
aF5.210543768438891
aF4.550878358771379
aF4.971394145757923
aF4.751298099162905
aF4.881945306145686
aF3.9450325102169432
aF5.2970594776567115
aF5.486735843232192
aF5.194635735053503
aF5.768067167632683
aF4.488352551467969
aF5.268356536350869
aF5.430912556623964
aF4.813748852205067
aF4.65144452822139
aF5.868788662439722
aF4.9935837986249565
aF5.755060462723639
aF5.196288288255467
aF6.118982769649447
aF5.831493254302832
aF5.317753810815938
aF5.827748182282801
aF4.916033409168191
aF5.0532151359059005
aF4.99114239604664
aF5.632029723916363
aF5.7991949887460885
aF5.510428650327992
aF4.31204134247683
aF5.611134526039929
aF6.562479953918133
aF5.9809639711835345
aF5.824838672456399
aF6.7334539555207495
aF6.696463022836271
aF6.532559832547686
aF6.01089740387953
aF4.025733870286941
aF3.3356503441639913
aF5.891650773806894
aF5.0789840190616395
aF4.788347972942728
aF5.27039642659468
aF5.404318622717785
aF5.356116410448005
aF4.129130038248201
aF4.1054674019258615
aF3.965143614434683
aF3.823504823338538
aF3.9566911984163156
aF3.7244647494760654
as.